; ModuleID = 'bench/opencv/original/opj_clock.ll'
source_filename = "bench/opencv/original/opj_clock.ll"
target datalayout = "e-m:e-p270:32:32-p271:32:32-p272:64:64-i64:64-i128:128-f80:128-n8:16:32:64-S128"
target triple = "x86_64-pc-linux-gnu"

%struct.rusage = type { %struct.timeval, %struct.timeval, %union.anon, %union.anon.0, %union.anon.1, %union.anon.2, %union.anon.3, %union.anon.4, %union.anon.5, %union.anon.6, %union.anon.7, %union.anon.8, %union.anon.9, %union.anon.10, %union.anon.11, %union.anon.12 }
%struct.timeval = type { i64, i64 }
%union.anon = type { i64 }
%union.anon.0 = type { i64 }
%union.anon.1 = type { i64 }
%union.anon.2 = type { i64 }
%union.anon.3 = type { i64 }
%union.anon.4 = type { i64 }
%union.anon.5 = type { i64 }
%union.anon.6 = type { i64 }
%union.anon.7 = type { i64 }
%union.anon.8 = type { i64 }
%union.anon.9 = type { i64 }
%union.anon.10 = type { i64 }
%union.anon.11 = type { i64 }
%union.anon.12 = type { i64 }

; Function Attrs: nounwind uwtable
define hidden double @opj_clock() local_unnamed_addr #0 {
  %1 = alloca %struct.rusage, align 8
  call void @llvm.lifetime.start.p0(i64 144, ptr nonnull %1) #4
  %2 = call i32 @getrusage(i32 noundef 0, ptr noundef nonnull %1) #4
  %3 = load i64, ptr %1, align 8, !tbaa !3
  %4 = getelementptr inbounds nuw i8, ptr %1, i64 16
  %5 = load i64, ptr %4, align 8, !tbaa !9
  %6 = add nsw i64 %5, %3
  %7 = sitofp i64 %6 to double
  %8 = getelementptr inbounds nuw i8, ptr %1, i64 8
  %9 = load i64, ptr %8, align 8, !tbaa !10
  %10 = getelementptr inbounds nuw i8, ptr %1, i64 24
  %11 = load i64, ptr %10, align 8, !tbaa !11
  %12 = add nsw i64 %11, %9
  %13 = sitofp i64 %12 to double
  %14 = call double @llvm.fmuladd.f64(double %13, double 0x3EB0C6F7A0B5ED8D, double %7)
  call void @llvm.lifetime.end.p0(i64 144, ptr nonnull %1) #4
  ret double %14
}

; Function Attrs: mustprogress nocallback nofree nosync nounwind willreturn memory(argmem: readwrite)
declare void @llvm.lifetime.start.p0(i64 immarg, ptr captures(none)) #1

; Function Attrs: nounwind
declare i32 @getrusage(i32 noundef, ptr noundef) local_unnamed_addr #2

; Function Attrs: mustprogress nocallback nofree nosync nounwind speculatable willreturn memory(none)
declare double @llvm.fmuladd.f64(double, double, double) #3

; Function Attrs: mustprogress nocallback nofree nosync nounwind willreturn memory(argmem: readwrite)
declare void @llvm.lifetime.end.p0(i64 immarg, ptr captures(none)) #1


!llvm.module.flags = !{!0, !1, !2}

!0 = !{i32 1, !"wchar_size", i32 4}
!1 = !{i32 8, !"PIC Level", i32 2}
!2 = !{i32 7, !"uwtable", i32 2}
!3 = !{!4, !6, i64 0}
!4 = !{!"rusage", !5, i64 0, !5, i64 16, !7, i64 32, !7, i64 40, !7, i64 48, !7, i64 56, !7, i64 64, !7, i64 72, !7, i64 80, !7, i64 88, !7, i64 96, !7, i64 104, !7, i64 112, !7, i64 120, !7, i64 128, !7, i64 136}
!5 = !{!"timeval", !6, i64 0, !6, i64 8}
!6 = !{!"long", !7, i64 0}
!7 = !{!"omnipotent char", !8, i64 0}
!8 = !{!"Simple C/C++ TBAA"}
!9 = !{!4, !6, i64 16}
!10 = !{!4, !6, i64 8}
!11 = !{!4, !6, i64 24}
